; Function Attrs: mustprogress nofree norecurse nosync nounwind memory(write, argmem: readwrite, inaccessiblemem: none) uwtable
define void @_ZN7testing9TestSuite14UnshuffleTestsEv(ptr noundef nonnull readonly align 8 captures(none) dereferenceable(264) %0) local_unnamed_addr #38 align 2 {
  %2 = getelementptr inbounds nuw i8, ptr %0, i64 72
  %3 = getelementptr inbounds nuw i8, ptr %0, i64 80
  %4 = load ptr, ptr %3, align 8, !tbaa !1099
  %5 = load ptr, ptr %2, align 8, !tbaa !1095
  %.not = icmp eq ptr %4, %5
  br i1 %.not, label %._crit_edge, label %.lr.ph.preheader

.lr.ph.preheader:                                 ; preds = %1
  %6 = ptrtoint ptr %4 to i64
  %7 = ptrtoint ptr %5 to i64
  %8 = sub i64 %6, %7
  %9 = ashr exact i64 %8, 2
  %umax = tail call i64 @llvm.umax.i64(i64 %9, i64 1)
  br label %.lr.ph

._crit_edge:                                      ; preds = %.lr.ph, %1
  ret void

.lr.ph:                                           ; preds = %.lr.ph.preheader, %.lr.ph
  %.04 = phi i64 [ %12, %.lr.ph ], [ 0, %.lr.ph.preheader ]
  %10 = trunc i64 %.04 to i32
  %11 = getelementptr inbounds nuw i32, ptr %5, i64 %.04
  store i32 %10, ptr %11, align 4, !tbaa !45
  %12 = add nuw i64 %.04, 1
  %exitcond.not = icmp eq i64 %12, %umax
  br i1 %exitcond.not, label %._crit_edge, label %.lr.ph, !llvm.loop !1106
}